; Function Attrs: mustprogress nounwind uwtable
define internal fastcc noundef zeroext i1 @_ZL10isICmpTrueN4llvm7CmpInst9PredicateEPNS_5ValueES3_RKNS_13SimplifyQueryEj(i32 noundef %0, ptr noundef %1, ptr noundef %2, ptr noundef nonnull align 8 dereferenceable(58) %3, i32 noundef %4) unnamed_addr #0 {
  %6 = tail call fastcc noundef ptr @_ZL16simplifyICmpInstjPN4llvm5ValueES1_RKNS_13SimplifyQueryEj(i32 noundef %0, ptr noundef %1, ptr noundef %2, ptr noundef nonnull align 8 dereferenceable(58) %3, i32 noundef %4)
  %.not.i.i = icmp eq ptr %6, null
  br i1 %.not.i.i, label %_ZN4llvm16dyn_cast_or_nullINS_8ConstantENS_5ValueEEEDaPT0_.exit.thread, label %7

7:                                                ; preds = %5
  %8 = load i8, ptr %6, align 8
  %9 = icmp ult i8 %8, 22
  br i1 %9, label %_ZN4llvm16dyn_cast_or_nullINS_8ConstantENS_5ValueEEEDaPT0_.exit, label %_ZN4llvm16dyn_cast_or_nullINS_8ConstantENS_5ValueEEEDaPT0_.exit.thread

_ZN4llvm16dyn_cast_or_nullINS_8ConstantENS_5ValueEEEDaPT0_.exit: ; preds = %7
  %10 = tail call noundef zeroext i1 @_ZNK4llvm8Constant14isAllOnesValueEv(ptr noundef nonnull align 8 dereferenceable(24) %6) #18
  br label %_ZN4llvm16dyn_cast_or_nullINS_8ConstantENS_5ValueEEEDaPT0_.exit.thread

_ZN4llvm16dyn_cast_or_nullINS_8ConstantENS_5ValueEEEDaPT0_.exit.thread: ; preds = %5, %7, %_ZN4llvm16dyn_cast_or_nullINS_8ConstantENS_5ValueEEEDaPT0_.exit
  %11 = phi i1 [ %10, %_ZN4llvm16dyn_cast_or_nullINS_8ConstantENS_5ValueEEEDaPT0_.exit ], [ false, %7 ], [ false, %5 ]
  ret i1 %11
}